_ZN7android10AllocationC1ERKNS_2spINS_12MemoryDealerEEERKNS1_INS_11IMemoryHeapEEElj
_ZN7android10AllocationC2ERKNS_2spINS_12MemoryDealerEEERKNS1_INS_11IMemoryHeapEEElj
_ZN7android10IInterface8asBinderEv
_ZN7android10IInterfaceC1Ev
_ZN7android10IInterfaceC2Ev
_ZN7android10IInterfaceD0Ev
_ZN7android10IInterfaceD1Ev
_ZN7android10IInterfaceD2Ev
_ZN7android10MemoryBaseC1ERKNS_2spINS_11IMemoryHeapEEElj
_ZN7android10MemoryBaseC2ERKNS_2spINS_11IMemoryHeapEEElj
_ZN7android10PermissionC1ERKNS_8String16E
_ZN7android10PermissionC2ERKNS_8String16E
_ZN7android11BnInterfaceINS_11IMemoryHeapEE10onAsBinderEv
_ZN7android11BnInterfaceINS_15IServiceManagerEE10onAsBinderEv
_ZN7android11BnInterfaceINS_21IPermissionControllerEE10onAsBinderEv
_ZN7android11BnInterfaceINS_7IMemoryEE10onAsBinderEv
_ZN7android11IMemoryHeap10descriptorE
_ZN7android11IMemoryHeap11asInterfaceERKNS_2spINS_7IBinderEEE
_ZN7android11IMemoryHeapC1Ev
_ZN7android11IMemoryHeapC2Ev
_ZN7android11IMemoryHeapD0Ev
_ZN7android11IMemoryHeapD1Ev
_ZN7android11IMemoryHeapD2Ev
_ZN7android12BpMemoryHeapC1ERKNS_2spINS_7IBinderEEE
_ZN7android12BpMemoryHeapC2ERKNS_2spINS_7IBinderEEE
_ZN7android12MemoryDealer10deallocateEj
_ZN7android12MemoryDealer8allocateEj
_ZN7android12MemoryDealerC1EjPKc
_ZN7android12MemoryDealerC2EjPKc
_ZN7android12MemoryDealerD0Ev
_ZN7android12MemoryDealerD1Ev
_ZN7android12MemoryDealerD2Ev
_ZN7android12ProcessState13expungeHandleEiPNS_7IBinderE
_ZN7android12ProcessState16getContextObjectERKNS_2spINS_7IBinderEEE
_ZN7android12ProcessState16getContextObjectERKNS_8String16ERKNS_2spINS_7IBinderEEE
_ZN7android12ProcessState16setContextObjectERKNS_2spINS_7IBinderEEE
_ZN7android12ProcessState16setContextObjectERKNS_2spINS_7IBinderEEERKNS_8String16E
_ZN7android12ProcessState20becomeContextManagerEPFbRKNS_8String16ERKNS_2spINS_7IBinderEEEPvES9_
_ZN7android12compare_typeINS_16key_value_pair_tINS_8String16ENS_2spINS_7IBinderEEEEEEEiRKT_S9_
_ZN7android14IPCThreadState13expungeHandleEiPNS_7IBinderE
_ZN7android14IPCThreadState22clearDeathNotificationEiPNS_8BpBinderE
_ZN7android14IPCThreadState24requestDeathNotificationEiPNS_8BpBinderE
_ZN7android14IPCThreadState29setLastTransactionBinderFlagsEi
_ZN7android14flatten_binderERKNS_2spINS_12ProcessStateEEERKNS0_INS_7IBinderEEEPNS_6ParcelE
_ZN7android14flatten_binderERKNS_2spINS_12ProcessStateEEERKNS_2wpINS_7IBinderEEEPNS_6ParcelE
_ZN7android15IServiceManager11asInterfaceERKNS_2spINS_7IBinderEEE
_ZN7android15checkPermissionERKNS_8String16Eij
_ZN7android16unflatten_binderERKNS_2spINS_12ProcessStateEEERKNS_6ParcelEPNS0_INS_7IBinderEEE
_ZN7android16unflatten_binderERKNS_2spINS_12ProcessStateEEERKNS_6ParcelEPNS_2wpINS_7IBinderEEE
_ZN7android17move_forward_typeINS_16key_value_pair_tINS_2wpINS_7IBinderEEENS_9HeapCache11heap_info_tEEEEEvPT_PKS8_j
_ZN7android17move_forward_typeINS_16key_value_pair_tINS_8String16ENS_2spINS_7IBinderEEEEEEEvPT_PKS7_j
_ZN7android17move_forward_typeINS_8BpBinder8ObituaryEEEvPT_PKS3_j
_ZN7android17move_forward_typeINS_8String16EEEvPT_PKS2_j
_ZN7android18move_backward_typeINS_16key_value_pair_tINS_2wpINS_7IBinderEEENS_9HeapCache11heap_info_tEEEEEvPT_PKS8_j
_ZN7android18move_backward_typeINS_16key_value_pair_tINS_8String16ENS_2spINS_7IBinderEEEEEEEvPT_PKS7_j
_ZN7android18move_backward_typeINS_8BpBinder8ObituaryEEEvPT_PKS3_j
_ZN7android18move_backward_typeINS_8String16EEEvPT_PKS2_j
_ZN7android19setTheContextObjectENS_2spINS_7BBinderEEE
_ZN7android21IPermissionController11asInterfaceERKNS_2spINS_7IBinderEEE
_ZN7android22checkCallingPermissionERKNS_8String16E
_ZN7android22checkCallingPermissionERKNS_8String16EPiS3_
_ZN7android2spINS_11IMemoryHeapEEC1ERKS2_
_ZN7android2spINS_11IMemoryHeapEED1Ev
_ZN7android2spINS_11IMemoryHeapEEaSEPS1_
_ZN7android2spINS_11IMemoryHeapEEaSERKS2_
_ZN7android2spINS_11IMemoryHeapEEaSINS_12BpMemoryHeapEEERS2_PT_
_ZN7android2spINS_7BBinderEED1Ev
_ZN7android2spINS_7IBinderEEC1ERKS2_
_ZN7android2spINS_7IBinderEED1Ev
_ZN7android2spINS_7IBinderEEaSEPS1_
_ZN7android2spINS_7IBinderEEaSERKS2_
_ZN7android2spINS_7IMemoryEEaSEPS1_
_ZN7android2spINS_7IMemoryEEaSINS_10AllocationEEERS2_PT_
_ZN7android2spINS_7IMemoryEEaSINS_8BpMemoryEEERS2_PT_
_ZN7android2wpINS_7IBinder14DeathRecipientEEaSERKNS_2spIS2_EE
_ZN7android2wpINS_7IBinder14DeathRecipientEEaSERKS3_
_ZN7android2wpINS_7IBinderEE19set_object_and_refsEPS1_PNS_7RefBase12weakref_typeE
_ZN7android2wpINS_7IBinderEEC1ERKNS_2spIS1_EE
_ZN7android2wpINS_7IBinderEEaSEPS1_
_ZN7android2wpINS_7IBinderEEaSERKS2_
_ZN7android6Parcel12writeCStringEPKc
_ZN7android6Parcel12writeString8ERKNS_7String8E
_ZN7android6Parcel13writeString16EPKtj
_ZN7android6Parcel13writeString16ERKNS_8String16E
_ZN7android6Parcel15writeWeakBinderERKNS_2wpINS_7IBinderEEE
_ZN7android6Parcel17writeStrongBinderERKNS_2spINS_7IBinderEEE
_ZN7android6Parcel19writeInterfaceTokenERKNS_8String16E
_ZN7android7BBinder10onTransactEjRKNS_6ParcelEPS1_j
_ZN7android7BBinder10pingBinderEv
_ZN7android7BBinder11linkToDeathERKNS_2spINS_7IBinder14DeathRecipientEEEPvj
_ZN7android7BBinder11localBinderEv
_ZN7android7BBinder12attachObjectEPKvPvS3_PFvS2_S3_S3_E
_ZN7android7BBinder12detachObjectEPKv
_ZN7android7BBinder13unlinkToDeathERKNS_2wpINS_7IBinder14DeathRecipientEEEPvjPS4_
_ZN7android7BBinder4dumpEiRKNS_6VectorINS_8String16EEE
_ZN7android7BBinder8transactEjRKNS_6ParcelEPS1_j
_ZN7android7BBinderC1Ev
_ZN7android7BBinderC2Ev
_ZN7android7BBinderD0Ev
_ZN7android7BBinderD1Ev
_ZN7android7BBinderD2Ev
_ZN7android7IBinder11localBinderEv
_ZN7android7IBinder12remoteBinderEv
_ZN7android7IBinder19queryLocalInterfaceERKNS_8String16E
_ZN7android7IBinderC1Ev
_ZN7android7IBinderC2Ev
_ZN7android7IBinderD0Ev
_ZN7android7IBinderD1Ev
_ZN7android7IBinderD2Ev
_ZN7android7IMemory10descriptorE
_ZN7android7IMemory11asInterfaceERKNS_2spINS_7IBinderEEE
_ZN7android7IMemoryC1Ev
_ZN7android7IMemoryC2Ev
_ZN7android7IMemoryD0Ev
_ZN7android7IMemoryD1Ev
_ZN7android7IMemoryD2Ev
_ZN7android8BpBinder10onFirstRefEv
_ZN7android8BpBinder10pingBinderEv
_ZN7android8BpBinder11linkToDeathERKNS_2spINS_7IBinder14DeathRecipientEEEPvj
_ZN7android8BpBinder12attachObjectEPKvPvS3_PFvS2_S3_S3_E
_ZN7android8BpBinder12detachObjectEPKv
_ZN7android8BpBinder12remoteBinderEv
_ZN7android8BpBinder12sendObituaryEv
_ZN7android8BpBinder13ObjectManager4killEv
_ZN7android8BpBinder13ObjectManager6attachEPKvPvS4_PFvS3_S4_S4_E
_ZN7android8BpBinder13ObjectManager6detachEPKv
_ZN7android8BpBinder13ObjectManagerC1Ev
_ZN7android8BpBinder13ObjectManagerC2Ev
_ZN7android8BpBinder13ObjectManagerD1Ev
_ZN7android8BpBinder13ObjectManagerD2Ev
_ZN7android8BpBinder13unlinkToDeathERKNS_2wpINS_7IBinder14DeathRecipientEEEPvjPS4_
_ZN7android8BpBinder14reportOneDeathERKNS0_8ObituaryE
_ZN7android8BpBinder15onLastStrongRefEPKv
_ZN7android8BpBinder20onIncStrongAttemptedEjPKv
_ZN7android8BpBinder4dumpEiRKNS_6VectorINS_8String16EEE
_ZN7android8BpBinder8transactEjRKNS_6ParcelEPS1_j
_ZN7android8BpBinderC1Ei
_ZN7android8BpBinderC2Ei
_ZN7android8BpBinderD0Ev
_ZN7android8BpBinderD1Ev
_ZN7android8BpBinderD2Ev
_ZN7android8BpMemoryC1ERKNS_2spINS_7IBinderEEE
_ZN7android8BpMemoryC2ERKNS_2spINS_7IBinderEEE
_ZN7android9BpRefBase10onFirstRefEv
_ZN7android9BpRefBase15onLastStrongRefEPKv
_ZN7android9BpRefBase20onIncStrongAttemptedEjPKv
_ZN7android9BpRefBaseC1ERKNS_2spINS_7IBinderEEE
_ZN7android9BpRefBaseC2ERKNS_2spINS_7IBinderEEE
_ZN7android9BpRefBaseD0Ev
_ZN7android9BpRefBaseD1Ev
_ZN7android9BpRefBaseD2Ev
_ZN7android9HeapCache10binderDiedERKNS_2wpINS_7IBinderEEE
_ZN7android9HeapCache8get_heapERKNS_2spINS_7IBinderEEE
_ZN7android9HeapCache9find_heapERKNS_2spINS_7IBinderEEE
_ZN7android9HeapCache9free_heapERKNS_2spINS_7IBinderEEE
_ZN7android9HeapCache9free_heapERKNS_2wpINS_7IBinderEEE
_ZNK7android10IInterface8asBinderEv
_ZNK7android11IMemoryHeap22getInterfaceDescriptorEv
_ZNK7android12MemoryDealer4dumpEPKc
_ZNK7android12MemoryDealer4heapEv
_ZNK7android12MemoryDealer9allocatorEv
_ZNK7android12SortedVectorINS_16key_value_pair_tINS_2wpINS_7IBinderEEENS_9HeapCache11heap_info_tEEEE10do_compareEPKvSA_
_ZNK7android12SortedVectorINS_16key_value_pair_tINS_2wpINS_7IBinderEEENS_9HeapCache11heap_info_tEEEE10do_destroyEPvj
_ZNK7android12SortedVectorINS_16key_value_pair_tINS_2wpINS_7IBinderEEENS_9HeapCache11heap_info_tEEEE12do_constructEPvj
_ZNK7android12SortedVectorINS_16key_value_pair_tINS_2wpINS_7IBinderEEENS_9HeapCache11heap_info_tEEEE15do_move_forwardEPvPKvj
_ZNK7android12SortedVectorINS_16key_value_pair_tINS_2wpINS_7IBinderEEENS_9HeapCache11heap_info_tEEEE16do_move_backwardEPvPKvj
_ZNK7android12SortedVectorINS_16key_value_pair_tINS_2wpINS_7IBinderEEENS_9HeapCache11heap_info_tEEEE7do_copyEPvPKvj
_ZNK7android12SortedVectorINS_16key_value_pair_tINS_2wpINS_7IBinderEEENS_9HeapCache11heap_info_tEEEE8do_splatEPvPKvj
_ZNK7android12SortedVectorINS_16key_value_pair_tINS_8String16ENS_2spINS_7IBinderEEEEEE10do_compareEPKvS9_
_ZNK7android12SortedVectorINS_16key_value_pair_tINS_8String16ENS_2spINS_7IBinderEEEEEE10do_destroyEPvj
_ZNK7android12SortedVectorINS_16key_value_pair_tINS_8String16ENS_2spINS_7IBinderEEEEEE12do_constructEPvj
_ZNK7android12SortedVectorINS_16key_value_pair_tINS_8String16ENS_2spINS_7IBinderEEEEEE15do_move_forwardEPvPKvj
_ZNK7android12SortedVectorINS_16key_value_pair_tINS_8String16ENS_2spINS_7IBinderEEEEEE16do_move_backwardEPvPKvj
_ZNK7android12SortedVectorINS_16key_value_pair_tINS_8String16ENS_2spINS_7IBinderEEEEEE7do_copyEPvPKvj
_ZNK7android12SortedVectorINS_16key_value_pair_tINS_8String16ENS_2spINS_7IBinderEEEEEE8do_splatEPvPKvj
_ZNK7android12SortedVectorINS_16key_value_pair_tIPKvNS_8BpBinder13ObjectManager7entry_tEEEE10do_compareES3_S3_
_ZNK7android12SortedVectorINS_16key_value_pair_tIPKvNS_8BpBinder13ObjectManager7entry_tEEEE10do_destroyEPvj
_ZNK7android12SortedVectorINS_16key_value_pair_tIPKvNS_8BpBinder13ObjectManager7entry_tEEEE12do_constructEPvj
_ZNK7android12SortedVectorINS_16key_value_pair_tIPKvNS_8BpBinder13ObjectManager7entry_tEEEE15do_move_forwardEPvS3_j
_ZNK7android12SortedVectorINS_16key_value_pair_tIPKvNS_8BpBinder13ObjectManager7entry_tEEEE16do_move_backwardEPvS3_j
_ZNK7android12SortedVectorINS_16key_value_pair_tIPKvNS_8BpBinder13ObjectManager7entry_tEEEE7do_copyEPvS3_j
_ZNK7android12SortedVectorINS_16key_value_pair_tIPKvNS_8BpBinder13ObjectManager7entry_tEEEE8do_splatEPvS3_j
_ZNK7android14IPCThreadState29getLastTransactionBinderFlagsEv
_ZNK7android22SimpleBestFitAllocator4dumpERNS_7String8EPKc
_ZNK7android22SimpleBestFitAllocator6dump_lERNS_7String8EPKc
_ZNK7android6Parcel11readCStringEv
_ZNK7android6Parcel11readString8Ev
_ZNK7android6Parcel12readString16Ev
_ZNK7android6Parcel14checkInterfaceEPNS_7IBinderE
_ZNK7android6Parcel14readWeakBinderEv
_ZNK7android6Parcel16enforceInterfaceERKNS_8String16E
_ZNK7android6Parcel16enforceInterfaceERKNS_8String16EPNS_14IPCThreadStateE
_ZNK7android6Parcel16readStrongBinderEv
_ZNK7android6Parcel19readString16InplaceEPj
_ZNK7android6VectorINS_8BpBinder8ObituaryEE10do_destroyEPvj
_ZNK7android6VectorINS_8BpBinder8ObituaryEE12do_constructEPvj
_ZNK7android6VectorINS_8BpBinder8ObituaryEE15do_move_forwardEPvPKvj
_ZNK7android6VectorINS_8BpBinder8ObituaryEE16do_move_backwardEPvPKvj
_ZNK7android6VectorINS_8BpBinder8ObituaryEE7do_copyEPvPKvj
_ZNK7android6VectorINS_8BpBinder8ObituaryEE8do_splatEPvPKvj
_ZNK7android6VectorINS_8String16EE10do_destroyEPvj
_ZNK7android6VectorINS_8String16EE12do_constructEPvj
_ZNK7android6VectorINS_8String16EE15do_move_forwardEPvPKvj
_ZNK7android6VectorINS_8String16EE16do_move_backwardEPvPKvj
_ZNK7android6VectorINS_8String16EE7do_copyEPvPKvj
_ZNK7android6VectorINS_8String16EE8do_splatEPvPKvj
_ZNK7android6VectorIPNS_7BBinderEE10do_destroyEPvj
_ZNK7android6VectorIPNS_7BBinderEE12do_constructEPvj
_ZNK7android6VectorIPNS_7BBinderEE15do_move_forwardEPvPKvj
_ZNK7android6VectorIPNS_7BBinderEE16do_move_backwardEPvPKvj
_ZNK7android6VectorIPNS_7BBinderEE7do_copyEPvPKvj
_ZNK7android6VectorIPNS_7BBinderEE8do_splatEPvPKvj
_ZNK7android6VectorIPNS_7RefBase12weakref_typeEE10do_destroyEPvj
_ZNK7android6VectorIPNS_7RefBase12weakref_typeEE12do_constructEPvj
_ZNK7android6VectorIPNS_7RefBase12weakref_typeEE15do_move_forwardEPvPKvj
_ZNK7android6VectorIPNS_7RefBase12weakref_typeEE16do_move_backwardEPvPKvj
_ZNK7android6VectorIPNS_7RefBase12weakref_typeEE7do_copyEPvPKvj
_ZNK7android6VectorIPNS_7RefBase12weakref_typeEE8do_splatEPvPKvj
_ZNK7android7BBinder10findObjectEPKv
_ZNK7android7BBinder13isBinderAliveEv
_ZNK7android7BBinder22getInterfaceDescriptorEv
_ZNK7android7IBinder13checkSubclassEPKv
_ZNK7android7IMemory11fastPointerERKNS_2spINS_7IBinderEEEl
_ZNK7android7IMemory22getInterfaceDescriptorEv
_ZNK7android7IMemory4sizeEv
_ZNK7android7IMemory6offsetEv
_ZNK7android7IMemory7pointerEv
_ZNK7android8BpBinder10findObjectEPKv
_ZNK7android8BpBinder13ObjectManager4findEPKv
_ZNK7android8BpBinder13isBinderAliveEv
_ZNK7android8BpBinder18isDescriptorCachedEv
_ZNK7android8BpBinder22getInterfaceDescriptorEv
_ZTCN7android10AllocationE0_NS_10IInterfaceE
_ZTCN7android10AllocationE0_NS_11BnInterfaceINS_7IMemoryEEE
_ZTCN7android10AllocationE0_NS_7IMemoryE
_ZTCN7android10AllocationE4_NS_7BBinderE
_ZTCN7android10AllocationE4_NS_7IBinderE
_ZTCN7android10MemoryBaseE0_NS_10IInterfaceE
_ZTCN7android10MemoryBaseE0_NS_11BnInterfaceINS_7IMemoryEEE
_ZTCN7android10MemoryBaseE0_NS_7IMemoryE
_ZTCN7android10MemoryBaseE4_NS_7BBinderE
_ZTCN7android10MemoryBaseE4_NS_7IBinderE
_ZTCN7android11BnInterfaceINS_11IMemoryHeapEEE0_NS_10IInterfaceE
_ZTCN7android11BnInterfaceINS_11IMemoryHeapEEE0_S1_
_ZTCN7android11BnInterfaceINS_11IMemoryHeapEEE4_NS_7BBinderE
_ZTCN7android11BnInterfaceINS_11IMemoryHeapEEE4_NS_7IBinderE
_ZTCN7android11BnInterfaceINS_15IServiceManagerEEE0_NS_10IInterfaceE
_ZTCN7android11BnInterfaceINS_15IServiceManagerEEE4_NS_7BBinderE
_ZTCN7android11BnInterfaceINS_15IServiceManagerEEE4_NS_7IBinderE
_ZTCN7android11BnInterfaceINS_21IPermissionControllerEEE0_NS_10IInterfaceE
_ZTCN7android11BnInterfaceINS_21IPermissionControllerEEE4_NS_7BBinderE
_ZTCN7android11BnInterfaceINS_21IPermissionControllerEEE4_NS_7IBinderE
_ZTCN7android11BnInterfaceINS_7IMemoryEEE0_NS_10IInterfaceE
_ZTCN7android11BnInterfaceINS_7IMemoryEEE0_S1_
_ZTCN7android11BnInterfaceINS_7IMemoryEEE4_NS_7BBinderE
_ZTCN7android11BnInterfaceINS_7IMemoryEEE4_NS_7IBinderE
_ZTCN7android11BpInterfaceINS_11IMemoryHeapEEE0_NS_10IInterfaceE
_ZTCN7android11BpInterfaceINS_11IMemoryHeapEEE0_S1_
_ZTCN7android11BpInterfaceINS_11IMemoryHeapEEE4_NS_9BpRefBaseE
_ZTCN7android11BpInterfaceINS_15IServiceManagerEEE0_NS_10IInterfaceE
_ZTCN7android11BpInterfaceINS_15IServiceManagerEEE4_NS_9BpRefBaseE
_ZTCN7android11BpInterfaceINS_21IPermissionControllerEEE0_NS_10IInterfaceE
_ZTCN7android11BpInterfaceINS_21IPermissionControllerEEE4_NS_9BpRefBaseE
_ZTCN7android11BpInterfaceINS_7IMemoryEEE0_NS_10IInterfaceE
_ZTCN7android11BpInterfaceINS_7IMemoryEEE0_S1_
_ZTCN7android11BpInterfaceINS_7IMemoryEEE4_NS_9BpRefBaseE
_ZTCN7android11IMemoryHeapE0_NS_10IInterfaceE
_ZTCN7android12BnMemoryHeapE0_NS_10IInterfaceE
_ZTCN7android12BnMemoryHeapE0_NS_11BnInterfaceINS_11IMemoryHeapEEE
_ZTCN7android12BnMemoryHeapE0_NS_11IMemoryHeapE
_ZTCN7android12BnMemoryHeapE4_NS_7BBinderE
_ZTCN7android12BnMemoryHeapE4_NS_7IBinderE
_ZTCN7android12BpMemoryHeapE0_NS_10IInterfaceE
_ZTCN7android12BpMemoryHeapE0_NS_11BpInterfaceINS_11IMemoryHeapEEE
_ZTCN7android12BpMemoryHeapE0_NS_11IMemoryHeapE
_ZTCN7android12BpMemoryHeapE4_NS_9BpRefBaseE
_ZTCN7android14MemoryHeapBaseE28_NS_10IInterfaceE
_ZTCN7android14MemoryHeapBaseE28_NS_11BnInterfaceINS_11IMemoryHeapEEE
_ZTCN7android14MemoryHeapBaseE28_NS_11IMemoryHeapE
_ZTCN7android14MemoryHeapBaseE32_NS_7BBinderE
_ZTCN7android14MemoryHeapBaseE32_NS_7IBinderE
_ZTCN7android14MemoryHeapPmem10MemoryPmemE0_NS_10IInterfaceE
_ZTCN7android14MemoryHeapPmem10MemoryPmemE0_NS_11BnInterfaceINS_7IMemoryEEE
_ZTCN7android14MemoryHeapPmem10MemoryPmemE0_NS_7IMemoryE
_ZTCN7android14MemoryHeapPmem10MemoryPmemE4_NS_7BBinderE
_ZTCN7android14MemoryHeapPmem10MemoryPmemE4_NS_7IBinderE
_ZTCN7android14MemoryHeapPmemE56_NS_10IInterfaceE
_ZTCN7android14MemoryHeapPmemE56_NS_11BnInterfaceINS_11IMemoryHeapEEE
_ZTCN7android14MemoryHeapPmemE56_NS_11IMemoryHeapE
_ZTCN7android14MemoryHeapPmemE60_NS_7BBinderE
_ZTCN7android14MemoryHeapPmemE60_NS_7IBinderE
_ZTCN7android15IServiceManagerE0_NS_10IInterfaceE
_ZTCN7android15SubRegionMemoryE0_NS_10IInterfaceE
_ZTCN7android15SubRegionMemoryE0_NS_11BnInterfaceINS_7IMemoryEEE
_ZTCN7android15SubRegionMemoryE0_NS_7IMemoryE
_ZTCN7android15SubRegionMemoryE4_NS_7BBinderE
_ZTCN7android15SubRegionMemoryE4_NS_7IBinderE
_ZTCN7android16BnServiceManagerE0_NS_10IInterfaceE
_ZTCN7android16BnServiceManagerE4_NS_7BBinderE
_ZTCN7android16BnServiceManagerE4_NS_7IBinderE
_ZTCN7android16BpServiceManagerE0_NS_10IInterfaceE
_ZTCN7android16BpServiceManagerE4_NS_9BpRefBaseE
_ZTCN7android21IPermissionControllerE0_NS_10IInterfaceE
_ZTCN7android22BnPermissionControllerE0_NS_10IInterfaceE
_ZTCN7android22BnPermissionControllerE4_NS_7BBinderE
_ZTCN7android22BnPermissionControllerE4_NS_7IBinderE
_ZTCN7android22BpPermissionControllerE0_NS_10IInterfaceE
_ZTCN7android22BpPermissionControllerE4_NS_9BpRefBaseE
_ZTCN7android7BBinderE0_NS_7IBinderE
_ZTCN7android7IMemoryE0_NS_10IInterfaceE
_ZTCN7android8BnMemoryE0_NS_10IInterfaceE
_ZTCN7android8BnMemoryE0_NS_11BnInterfaceINS_7IMemoryEEE
_ZTCN7android8BnMemoryE0_NS_7IMemoryE
_ZTCN7android8BnMemoryE4_NS_7BBinderE
_ZTCN7android8BnMemoryE4_NS_7IBinderE
_ZTCN7android8BpBinderE0_NS_7IBinderE
_ZTCN7android8BpMemoryE0_NS_10IInterfaceE
_ZTCN7android8BpMemoryE0_NS_11BpInterfaceINS_7IMemoryEEE
_ZTCN7android8BpMemoryE0_NS_7IMemoryE
_ZTCN7android8BpMemoryE4_NS_9BpRefBaseE
_ZTCN7android9HeapCacheE0_NS_7IBinder14DeathRecipientE
_ZTTN7android10IInterfaceE
_ZTTN7android11BnInterfaceINS_11IMemoryHeapEEE
_ZTTN7android11BnInterfaceINS_7IMemoryEEE
_ZTTN7android11BpInterfaceINS_11IMemoryHeapEEE
_ZTTN7android11BpInterfaceINS_7IMemoryEEE
_ZTTN7android11IMemoryHeapE
_ZTTN7android7BBinderE
_ZTTN7android7IBinder14DeathRecipientE
_ZTTN7android7IBinderE
_ZTTN7android7IMemoryE
_ZTTN7android8BpBinderE
_ZTTN7android9BpRefBaseE
_ZTVN7android10IInterfaceE
_ZTVN7android11BnInterfaceINS_11IMemoryHeapEEE
_ZTVN7android11BnInterfaceINS_7IMemoryEEE
_ZTVN7android11BpInterfaceINS_11IMemoryHeapEEE
_ZTVN7android11BpInterfaceINS_7IMemoryEEE
_ZTVN7android11IMemoryHeapE
_ZTVN7android12MemoryDealerE
_ZTVN7android12SortedVectorINS_16key_value_pair_tINS_2wpINS_7IBinderEEENS_9HeapCache11heap_info_tEEEEE
_ZTVN7android12SortedVectorINS_16key_value_pair_tINS_8String16ENS_2spINS_7IBinderEEEEEEE
_ZTVN7android12SortedVectorINS_16key_value_pair_tIPKvNS_8BpBinder13ObjectManager7entry_tEEEEE
_ZTVN7android6VectorINS_8BpBinder8ObituaryEEE
_ZTVN7android6VectorINS_8String16EEE
_ZTVN7android6VectorIPNS_7BBinderEEE
_ZTVN7android6VectorIPNS_7RefBase12weakref_typeEEE
_ZTVN7android7BBinderE
_ZTVN7android7IBinder14DeathRecipientE
_ZTVN7android7IBinderE
_ZTVN7android7IMemoryE
_ZTVN7android8BpBinderE
_ZTVN7android9BpRefBaseE
_ZTv0_n12_N7android10IInterfaceD0Ev
_ZTv0_n12_N7android10IInterfaceD1Ev
_ZTv0_n12_N7android11BnInterfaceINS_11IMemoryHeapEED0Ev
_ZTv0_n12_N7android11BnInterfaceINS_11IMemoryHeapEED1Ev
_ZTv0_n12_N7android11BnInterfaceINS_7IMemoryEED0Ev
_ZTv0_n12_N7android11BnInterfaceINS_7IMemoryEED1Ev
_ZTv0_n12_N7android11BpInterfaceINS_11IMemoryHeapEED0Ev
_ZTv0_n12_N7android11BpInterfaceINS_11IMemoryHeapEED1Ev
_ZTv0_n12_N7android11BpInterfaceINS_7IMemoryEED0Ev
_ZTv0_n12_N7android11BpInterfaceINS_7IMemoryEED1Ev
_ZTv0_n12_N7android11IMemoryHeapD0Ev
_ZTv0_n12_N7android11IMemoryHeapD1Ev
_ZTv0_n12_N7android7BBinderD0Ev
_ZTv0_n12_N7android7BBinderD1Ev
_ZTv0_n12_N7android7IBinder14DeathRecipientD0Ev
_ZTv0_n12_N7android7IBinder14DeathRecipientD1Ev
_ZTv0_n12_N7android7IBinderD0Ev
_ZTv0_n12_N7android7IBinderD1Ev
_ZTv0_n12_N7android7IMemoryD0Ev
_ZTv0_n12_N7android7IMemoryD1Ev
_ZTv0_n12_N7android8BpBinderD0Ev
_ZTv0_n12_N7android8BpBinderD1Ev
_ZTv0_n12_N7android9BpRefBaseD0Ev
_ZTv0_n12_N7android9BpRefBaseD1Ev
_ZTv0_n16_N7android8BpBinder10onFirstRefEv
_ZTv0_n16_N7android9BpRefBase10onFirstRefEv
_ZTv0_n20_N7android8BpBinder15onLastStrongRefEPKv
_ZTv0_n20_N7android9BpRefBase15onLastStrongRefEPKv
_ZTv0_n24_N7android8BpBinder20onIncStrongAttemptedEjPKv
_ZTv0_n24_N7android9BpRefBase20onIncStrongAttemptedEjPKv
