_ZN7android10AudioTrack11createTrackEijiiijRKNS_2spINS_7IMemoryEEEib
_ZN7android10AudioTrack3setEijiiijPFviPvS1_ES1_iRKNS_2spINS_7IMemoryEEEbi
_ZN7android10AudioTrackC1EijiiRKNS_2spINS_7IMemoryEEEjPFviPvS6_ES6_ii
_ZN7android10AudioTrackC2EijiiRKNS_2spINS_7IMemoryEEEjPFviPvS6_ES6_ii
_ZN7android11AudioEffect12guidToStringEPK13effect_uuid_sPcj
_ZN7android11AudioSystem13getParametersEiRKNS_7String8E
_ZN7android11AudioSystem13setParametersEiRKNS_7String8E
_ZN7android11AudioSystem18AudioFlingerClient10binderDiedERKNS_2wpINS_7IBinderEEE
_ZN7android11AudioSystem24AudioPolicyServiceClient10binderDiedERKNS_2wpINS_7IBinderEEE
_ZN7android11BnInterfaceINS_11IAudioTrackEE10onAsBinderEv
_ZN7android11BnInterfaceINS_12IAudioRecordEE10onAsBinderEv
_ZN7android11BnInterfaceINS_12IMediaPlayerEE10onAsBinderEv
_ZN7android11BnInterfaceINS_12IOMXObserverEE10onAsBinderEv
_ZN7android11BnInterfaceINS_12IOMXRendererEE10onAsBinderEv
_ZN7android11BnInterfaceINS_13IAudioFlingerEE10onAsBinderEv
_ZN7android11BnInterfaceINS_13IEffectClientEE10onAsBinderEv
_ZN7android11BnInterfaceINS_14IMediaRecorderEE10onAsBinderEv
_ZN7android11BnInterfaceINS_18IMediaPlayerClientEE10onAsBinderEv
_ZN7android11BnInterfaceINS_19IAudioFlingerClientEE10onAsBinderEv
_ZN7android11BnInterfaceINS_19IAudioPolicyServiceEE10onAsBinderEv
_ZN7android11BnInterfaceINS_19IMediaPlayerServiceEE10onAsBinderEv
_ZN7android11BnInterfaceINS_20IMediaRecorderClientEE10onAsBinderEv
_ZN7android11BnInterfaceINS_23IMediaMetadataRetrieverEE10onAsBinderEv
_ZN7android11BnInterfaceINS_4IOMXEE10onAsBinderEv
_ZN7android11BnInterfaceINS_7IEffectEE10onAsBinderEv
_ZN7android11IAudioTrack11asInterfaceERKNS_2spINS_7IBinderEEE
_ZN7android11MediaPlayer13setDataSourceEPKcPKNS_11KeyedVectorINS_7String8ES4_EE
_ZN7android12IAudioRecord11asInterfaceERKNS_2spINS_7IBinderEEE
_ZN7android12IMediaPlayer11asInterfaceERKNS_2spINS_7IBinderEEE
_ZN7android12IOMXObserver10descriptorE
_ZN7android12IOMXObserver11asInterfaceERKNS_2spINS_7IBinderEEE
_ZN7android12IOMXObserverC1Ev
_ZN7android12IOMXObserverC2Ev
_ZN7android12IOMXObserverD0Ev
_ZN7android12IOMXObserverD1Ev
_ZN7android12IOMXObserverD2Ev
_ZN7android12IOMXRenderer11asInterfaceERKNS_2spINS_7IBinderEEE
_ZN7android12compare_typeINS_16key_value_pair_tINS_7String8ES2_EEEEiRKT_S6_
_ZN7android13BnOMXObserver10onTransactEjRKNS_6ParcelEPS1_j
_ZN7android13IAudioFlinger11asInterfaceERKNS_2spINS_7IBinderEEE
_ZN7android13IEffectClient11asInterfaceERKNS_2spINS_7IBinderEEE
_ZN7android13MediaRecorder13setParametersERKNS_7String8E
_ZN7android13MediaRecorder19setCameraParametersERKNS_7String8E
_ZN7android14AudioParameter3addERKNS_7String8ES3_
_ZN7android14AudioParameter3getERKNS_7String8ERS1_
_ZN7android14AudioParameter5getAtEjRNS_7String8ES2_
_ZN7android14AudioParameter6addIntERKNS_7String8Ei
_ZN7android14AudioParameter6getIntERKNS_7String8ERi
_ZN7android14AudioParameter6removeERKNS_7String8E
_ZN7android14AudioParameter8addFloatERKNS_7String8Ef
_ZN7android14AudioParameter8getFloatERKNS_7String8ERf
_ZN7android14AudioParameter8toStringEv
_ZN7android14AudioParameterC1ERKNS_7String8E
_ZN7android14AudioParameterC2ERKNS_7String8E
_ZN7android14IMediaRecorder11asInterfaceERKNS_2spINS_7IBinderEEE
_ZN7android17move_forward_typeINS_16key_value_pair_tINS_7String8ES2_EEEEvPT_PKS4_j
_ZN7android18IMediaPlayerClient11asInterfaceERKNS_2spINS_7IBinderEEE
_ZN7android18MediaScannerClient12addStringTagEPKcS2_
_ZN7android18move_backward_typeINS_16key_value_pair_tINS_7String8ES2_EEEEvPT_PKS4_j
_ZN7android19IAudioFlingerClient11asInterfaceERKNS_2spINS_7IBinderEEE
_ZN7android19IAudioPolicyService11asInterfaceERKNS_2spINS_7IBinderEEE
_ZN7android19IMediaDeathNotifier13DeathNotifier10binderDiedERKNS_2wpINS_7IBinderEEE
_ZN7android19IMediaPlayerService11asInterfaceERKNS_2spINS_7IBinderEEE
_ZN7android20IMediaRecorderClient11asInterfaceERKNS_2spINS_7IBinderEEE
_ZN7android22MediaMetadataRetriever13DeathNotifier10binderDiedERKNS_2wpINS_7IBinderEEE
_ZN7android23IMediaMetadataRetriever11asInterfaceERKNS_2spINS_7IBinderEEE
_ZN7android2spINS_12IOMXObserverEEaSEPS1_
_ZN7android2spINS_12IOMXObserverEEaSINS_13BpOMXObserverEEERS2_PT_
_ZN7android2spINS_7IBinderEED1Ev
_ZN7android2spINS_7IBinderEEaSERKS2_
_ZN7android2spINS_7IMemoryEED1Ev
_ZN7android2spINS_7IMemoryEEaSERKS2_
_ZN7android4IOMX11asInterfaceERKNS_2spINS_7IBinderEEE
_ZN7android7IEffect11asInterfaceERKNS_2spINS_7IBinderEEE
_ZNK7android10AudioTrack4dumpEiRKNS_6VectorINS_8String16EEE
_ZNK7android12IOMXObserver22getInterfaceDescriptorEv
_ZNK7android12SortedVectorINS_16key_value_pair_tINS_7String8ES2_EEE10do_compareEPKvS6_
_ZNK7android12SortedVectorINS_16key_value_pair_tINS_7String8ES2_EEE10do_destroyEPvj
_ZNK7android12SortedVectorINS_16key_value_pair_tINS_7String8ES2_EEE12do_constructEPvj
_ZNK7android12SortedVectorINS_16key_value_pair_tINS_7String8ES2_EEE15do_move_forwardEPvPKvj
_ZNK7android12SortedVectorINS_16key_value_pair_tINS_7String8ES2_EEE16do_move_backwardEPvPKvj
_ZNK7android12SortedVectorINS_16key_value_pair_tINS_7String8ES2_EEE7do_copyEPvPKvj
_ZNK7android12SortedVectorINS_16key_value_pair_tINS_7String8ES2_EEE8do_splatEPvPKvj
_ZTCN7android11AudioEffect12EffectClientE0_NS_10IInterfaceE
_ZTCN7android11AudioEffect12EffectClientE16_NS_7IBinder14DeathRecipientE
_ZTCN7android11AudioEffect12EffectClientE4_NS_7BBinderE
_ZTCN7android11AudioEffect12EffectClientE4_NS_7IBinderE
_ZTCN7android11AudioSystem18AudioFlingerClientE0_NS_7IBinder14DeathRecipientE
_ZTCN7android11AudioSystem18AudioFlingerClientE4_NS_10IInterfaceE
_ZTCN7android11AudioSystem18AudioFlingerClientE8_NS_7BBinderE
_ZTCN7android11AudioSystem18AudioFlingerClientE8_NS_7IBinderE
_ZTCN7android11AudioSystem24AudioPolicyServiceClientE0_NS_7IBinder14DeathRecipientE
_ZTCN7android11BnInterfaceINS_11IAudioTrackEEE0_NS_10IInterfaceE
_ZTCN7android11BnInterfaceINS_11IAudioTrackEEE4_NS_7BBinderE
_ZTCN7android11BnInterfaceINS_11IAudioTrackEEE4_NS_7IBinderE
_ZTCN7android11BnInterfaceINS_12IAudioRecordEEE0_NS_10IInterfaceE
_ZTCN7android11BnInterfaceINS_12IAudioRecordEEE4_NS_7BBinderE
_ZTCN7android11BnInterfaceINS_12IAudioRecordEEE4_NS_7IBinderE
_ZTCN7android11BnInterfaceINS_12IMediaPlayerEEE0_NS_10IInterfaceE
_ZTCN7android11BnInterfaceINS_12IMediaPlayerEEE4_NS_7BBinderE
_ZTCN7android11BnInterfaceINS_12IMediaPlayerEEE4_NS_7IBinderE
_ZTCN7android11BnInterfaceINS_12IOMXObserverEEE0_NS_10IInterfaceE
_ZTCN7android11BnInterfaceINS_12IOMXObserverEEE0_S1_
_ZTCN7android11BnInterfaceINS_12IOMXObserverEEE4_NS_7BBinderE
_ZTCN7android11BnInterfaceINS_12IOMXObserverEEE4_NS_7IBinderE
_ZTCN7android11BnInterfaceINS_12IOMXRendererEEE0_NS_10IInterfaceE
_ZTCN7android11BnInterfaceINS_12IOMXRendererEEE4_NS_7BBinderE
_ZTCN7android11BnInterfaceINS_12IOMXRendererEEE4_NS_7IBinderE
_ZTCN7android11BnInterfaceINS_13IAudioFlingerEEE0_NS_10IInterfaceE
_ZTCN7android11BnInterfaceINS_13IAudioFlingerEEE4_NS_7BBinderE
_ZTCN7android11BnInterfaceINS_13IAudioFlingerEEE4_NS_7IBinderE
_ZTCN7android11BnInterfaceINS_13IEffectClientEEE0_NS_10IInterfaceE
_ZTCN7android11BnInterfaceINS_13IEffectClientEEE4_NS_7BBinderE
_ZTCN7android11BnInterfaceINS_13IEffectClientEEE4_NS_7IBinderE
_ZTCN7android11BnInterfaceINS_14IMediaRecorderEEE0_NS_10IInterfaceE
_ZTCN7android11BnInterfaceINS_14IMediaRecorderEEE4_NS_7BBinderE
_ZTCN7android11BnInterfaceINS_14IMediaRecorderEEE4_NS_7IBinderE
_ZTCN7android11BnInterfaceINS_18IMediaPlayerClientEEE0_NS_10IInterfaceE
_ZTCN7android11BnInterfaceINS_18IMediaPlayerClientEEE4_NS_7BBinderE
_ZTCN7android11BnInterfaceINS_18IMediaPlayerClientEEE4_NS_7IBinderE
_ZTCN7android11BnInterfaceINS_19IAudioFlingerClientEEE0_NS_10IInterfaceE
_ZTCN7android11BnInterfaceINS_19IAudioFlingerClientEEE4_NS_7BBinderE
_ZTCN7android11BnInterfaceINS_19IAudioFlingerClientEEE4_NS_7IBinderE
_ZTCN7android11BnInterfaceINS_19IAudioPolicyServiceEEE0_NS_10IInterfaceE
_ZTCN7android11BnInterfaceINS_19IAudioPolicyServiceEEE4_NS_7BBinderE
_ZTCN7android11BnInterfaceINS_19IAudioPolicyServiceEEE4_NS_7IBinderE
_ZTCN7android11BnInterfaceINS_19IMediaPlayerServiceEEE0_NS_10IInterfaceE
_ZTCN7android11BnInterfaceINS_19IMediaPlayerServiceEEE4_NS_7BBinderE
_ZTCN7android11BnInterfaceINS_19IMediaPlayerServiceEEE4_NS_7IBinderE
_ZTCN7android11BnInterfaceINS_20IMediaRecorderClientEEE0_NS_10IInterfaceE
_ZTCN7android11BnInterfaceINS_20IMediaRecorderClientEEE4_NS_7BBinderE
_ZTCN7android11BnInterfaceINS_20IMediaRecorderClientEEE4_NS_7IBinderE
_ZTCN7android11BnInterfaceINS_23IMediaMetadataRetrieverEEE0_NS_10IInterfaceE
_ZTCN7android11BnInterfaceINS_23IMediaMetadataRetrieverEEE4_NS_7BBinderE
_ZTCN7android11BnInterfaceINS_23IMediaMetadataRetrieverEEE4_NS_7IBinderE
_ZTCN7android11BnInterfaceINS_4IOMXEEE0_NS_10IInterfaceE
_ZTCN7android11BnInterfaceINS_4IOMXEEE4_NS_7BBinderE
_ZTCN7android11BnInterfaceINS_4IOMXEEE4_NS_7IBinderE
_ZTCN7android11BnInterfaceINS_7IEffectEEE0_NS_10IInterfaceE
_ZTCN7android11BnInterfaceINS_7IEffectEEE4_NS_7BBinderE
_ZTCN7android11BnInterfaceINS_7IEffectEEE4_NS_7IBinderE
_ZTCN7android11BpInterfaceINS_11IAudioTrackEEE0_NS_10IInterfaceE
_ZTCN7android11BpInterfaceINS_11IAudioTrackEEE4_NS_9BpRefBaseE
_ZTCN7android11BpInterfaceINS_12IAudioRecordEEE0_NS_10IInterfaceE
_ZTCN7android11BpInterfaceINS_12IAudioRecordEEE4_NS_9BpRefBaseE
_ZTCN7android11BpInterfaceINS_12IMediaPlayerEEE0_NS_10IInterfaceE
_ZTCN7android11BpInterfaceINS_12IMediaPlayerEEE4_NS_9BpRefBaseE
_ZTCN7android11BpInterfaceINS_12IOMXObserverEEE0_NS_10IInterfaceE
_ZTCN7android11BpInterfaceINS_12IOMXObserverEEE0_S1_
_ZTCN7android11BpInterfaceINS_12IOMXObserverEEE4_NS_9BpRefBaseE
_ZTCN7android11BpInterfaceINS_12IOMXRendererEEE0_NS_10IInterfaceE
_ZTCN7android11BpInterfaceINS_12IOMXRendererEEE4_NS_9BpRefBaseE
_ZTCN7android11BpInterfaceINS_13IAudioFlingerEEE0_NS_10IInterfaceE
_ZTCN7android11BpInterfaceINS_13IAudioFlingerEEE4_NS_9BpRefBaseE
_ZTCN7android11BpInterfaceINS_13IEffectClientEEE0_NS_10IInterfaceE
_ZTCN7android11BpInterfaceINS_13IEffectClientEEE4_NS_9BpRefBaseE
_ZTCN7android11BpInterfaceINS_14IMediaRecorderEEE0_NS_10IInterfaceE
_ZTCN7android11BpInterfaceINS_14IMediaRecorderEEE4_NS_9BpRefBaseE
_ZTCN7android11BpInterfaceINS_18IMediaPlayerClientEEE0_NS_10IInterfaceE
_ZTCN7android11BpInterfaceINS_18IMediaPlayerClientEEE4_NS_9BpRefBaseE
_ZTCN7android11BpInterfaceINS_19IAudioFlingerClientEEE0_NS_10IInterfaceE
_ZTCN7android11BpInterfaceINS_19IAudioFlingerClientEEE4_NS_9BpRefBaseE
_ZTCN7android11BpInterfaceINS_19IAudioPolicyServiceEEE0_NS_10IInterfaceE
_ZTCN7android11BpInterfaceINS_19IAudioPolicyServiceEEE4_NS_9BpRefBaseE
_ZTCN7android11BpInterfaceINS_19IMediaPlayerServiceEEE0_NS_10IInterfaceE
_ZTCN7android11BpInterfaceINS_19IMediaPlayerServiceEEE4_NS_9BpRefBaseE
_ZTCN7android11BpInterfaceINS_20IMediaRecorderClientEEE0_NS_10IInterfaceE
_ZTCN7android11BpInterfaceINS_20IMediaRecorderClientEEE4_NS_9BpRefBaseE
_ZTCN7android11BpInterfaceINS_23IMediaMetadataRetrieverEEE0_NS_10IInterfaceE
_ZTCN7android11BpInterfaceINS_23IMediaMetadataRetrieverEEE4_NS_9BpRefBaseE
_ZTCN7android11BpInterfaceINS_4IOMXEEE0_NS_10IInterfaceE
_ZTCN7android11BpInterfaceINS_4IOMXEEE4_NS_9BpRefBaseE
_ZTCN7android11BpInterfaceINS_7IEffectEEE0_NS_10IInterfaceE
_ZTCN7android11BpInterfaceINS_7IEffectEEE4_NS_9BpRefBaseE
_ZTCN7android11IAudioTrackE0_NS_10IInterfaceE
_ZTCN7android11MediaPlayerE0_NS_10IInterfaceE
_ZTCN7android11MediaPlayerE4_NS_7BBinderE
_ZTCN7android11MediaPlayerE4_NS_7IBinderE
_ZTCN7android12BnAudioTrackE0_NS_10IInterfaceE
_ZTCN7android12BnAudioTrackE4_NS_7BBinderE
_ZTCN7android12BnAudioTrackE4_NS_7IBinderE
_ZTCN7android12BpAudioTrackE0_NS_10IInterfaceE
_ZTCN7android12BpAudioTrackE4_NS_9BpRefBaseE
_ZTCN7android12IAudioRecordE0_NS_10IInterfaceE
_ZTCN7android12IMediaPlayerE0_NS_10IInterfaceE
_ZTCN7android12IOMXObserverE0_NS_10IInterfaceE
_ZTCN7android12IOMXRendererE0_NS_10IInterfaceE
_ZTCN7android13BnAudioRecordE0_NS_10IInterfaceE
_ZTCN7android13BnAudioRecordE4_NS_7BBinderE
_ZTCN7android13BnAudioRecordE4_NS_7IBinderE
_ZTCN7android13BnMediaPlayerE0_NS_10IInterfaceE
_ZTCN7android13BnMediaPlayerE4_NS_7BBinderE
_ZTCN7android13BnMediaPlayerE4_NS_7IBinderE
_ZTCN7android13BnOMXObserverE0_NS_10IInterfaceE
_ZTCN7android13BnOMXObserverE0_NS_11BnInterfaceINS_12IOMXObserverEEE
_ZTCN7android13BnOMXObserverE0_NS_12IOMXObserverE
_ZTCN7android13BnOMXObserverE4_NS_7BBinderE
_ZTCN7android13BnOMXObserverE4_NS_7IBinderE
_ZTCN7android13BnOMXRendererE0_NS_10IInterfaceE
_ZTCN7android13BnOMXRendererE4_NS_7BBinderE
_ZTCN7android13BnOMXRendererE4_NS_7IBinderE
_ZTCN7android13BpAudioRecordE0_NS_10IInterfaceE
_ZTCN7android13BpAudioRecordE4_NS_9BpRefBaseE
_ZTCN7android13BpMediaPlayerE0_NS_10IInterfaceE
_ZTCN7android13BpMediaPlayerE4_NS_9BpRefBaseE
_ZTCN7android13BpOMXObserverE0_NS_10IInterfaceE
_ZTCN7android13BpOMXObserverE0_NS_11BpInterfaceINS_12IOMXObserverEEE
_ZTCN7android13BpOMXObserverE0_NS_12IOMXObserverE
_ZTCN7android13BpOMXObserverE4_NS_9BpRefBaseE
_ZTCN7android13BpOMXRendererE0_NS_10IInterfaceE
_ZTCN7android13BpOMXRendererE4_NS_9BpRefBaseE
_ZTCN7android13IAudioFlingerE0_NS_10IInterfaceE
_ZTCN7android13IEffectClientE0_NS_10IInterfaceE
_ZTCN7android13MediaRecorderE0_NS_10IInterfaceE
_ZTCN7android13MediaRecorderE4_NS_7BBinderE
_ZTCN7android13MediaRecorderE4_NS_7IBinderE
_ZTCN7android14BnAudioFlingerE0_NS_10IInterfaceE
_ZTCN7android14BnAudioFlingerE4_NS_7BBinderE
_ZTCN7android14BnAudioFlingerE4_NS_7IBinderE
_ZTCN7android14BnEffectClientE0_NS_10IInterfaceE
_ZTCN7android14BnEffectClientE4_NS_7BBinderE
_ZTCN7android14BnEffectClientE4_NS_7IBinderE
_ZTCN7android14BpAudioFlingerE0_NS_10IInterfaceE
_ZTCN7android14BpAudioFlingerE4_NS_9BpRefBaseE
_ZTCN7android14BpEffectClientE0_NS_10IInterfaceE
_ZTCN7android14BpEffectClientE4_NS_9BpRefBaseE
_ZTCN7android14IMediaRecorderE0_NS_10IInterfaceE
_ZTCN7android15BnMediaRecorderE0_NS_10IInterfaceE
_ZTCN7android15BnMediaRecorderE4_NS_7BBinderE
_ZTCN7android15BnMediaRecorderE4_NS_7IBinderE
_ZTCN7android15BpMediaRecorderE0_NS_10IInterfaceE
_ZTCN7android15BpMediaRecorderE4_NS_9BpRefBaseE
_ZTCN7android18IMediaPlayerClientE0_NS_10IInterfaceE
_ZTCN7android19BnMediaPlayerClientE0_NS_10IInterfaceE
_ZTCN7android19BnMediaPlayerClientE4_NS_7BBinderE
_ZTCN7android19BnMediaPlayerClientE4_NS_7IBinderE
_ZTCN7android19BpMediaPlayerClientE0_NS_10IInterfaceE
_ZTCN7android19BpMediaPlayerClientE4_NS_9BpRefBaseE
_ZTCN7android19IAudioFlingerClientE0_NS_10IInterfaceE
_ZTCN7android19IAudioPolicyServiceE0_NS_10IInterfaceE
_ZTCN7android19IMediaDeathNotifier13DeathNotifierE0_NS_7IBinder14DeathRecipientE
_ZTCN7android19IMediaPlayerServiceE0_NS_10IInterfaceE
_ZTCN7android20BnAudioFlingerClientE0_NS_10IInterfaceE
_ZTCN7android20BnAudioFlingerClientE4_NS_7BBinderE
_ZTCN7android20BnAudioFlingerClientE4_NS_7IBinderE
_ZTCN7android20BnAudioPolicyServiceE0_NS_10IInterfaceE
_ZTCN7android20BnAudioPolicyServiceE4_NS_7BBinderE
_ZTCN7android20BnAudioPolicyServiceE4_NS_7IBinderE
_ZTCN7android20BnMediaPlayerServiceE0_NS_10IInterfaceE
_ZTCN7android20BnMediaPlayerServiceE4_NS_7BBinderE
_ZTCN7android20BnMediaPlayerServiceE4_NS_7IBinderE
_ZTCN7android20BpAudioFlingerClientE0_NS_10IInterfaceE
_ZTCN7android20BpAudioFlingerClientE4_NS_9BpRefBaseE
_ZTCN7android20BpAudioPolicyServiceE0_NS_10IInterfaceE
_ZTCN7android20BpAudioPolicyServiceE4_NS_9BpRefBaseE
_ZTCN7android20BpMediaPlayerServiceE0_NS_10IInterfaceE
_ZTCN7android20BpMediaPlayerServiceE4_NS_9BpRefBaseE
_ZTCN7android20IMediaRecorderClientE0_NS_10IInterfaceE
_ZTCN7android21BnMediaRecorderClientE0_NS_10IInterfaceE
_ZTCN7android21BnMediaRecorderClientE4_NS_7BBinderE
_ZTCN7android21BnMediaRecorderClientE4_NS_7IBinderE
_ZTCN7android21BpMediaRecorderClientE0_NS_10IInterfaceE
_ZTCN7android21BpMediaRecorderClientE4_NS_9BpRefBaseE
_ZTCN7android22MediaMetadataRetriever13DeathNotifierE0_NS_7IBinder14DeathRecipientE
_ZTCN7android23IMediaMetadataRetrieverE0_NS_10IInterfaceE
_ZTCN7android24BnMediaMetadataRetrieverE0_NS_10IInterfaceE
_ZTCN7android24BnMediaMetadataRetrieverE4_NS_7BBinderE
_ZTCN7android24BnMediaMetadataRetrieverE4_NS_7IBinderE
_ZTCN7android24BpMediaMetadataRetrieverE0_NS_10IInterfaceE
_ZTCN7android24BpMediaMetadataRetrieverE4_NS_9BpRefBaseE
_ZTCN7android4IOMXE0_NS_10IInterfaceE
_ZTCN7android5BnOMXE0_NS_10IInterfaceE
_ZTCN7android5BnOMXE4_NS_7BBinderE
_ZTCN7android5BnOMXE4_NS_7IBinderE
_ZTCN7android5BpOMXE0_NS_10IInterfaceE
_ZTCN7android5BpOMXE4_NS_9BpRefBaseE
_ZTCN7android7IEffectE0_NS_10IInterfaceE
_ZTCN7android8BnEffectE0_NS_10IInterfaceE
_ZTCN7android8BnEffectE4_NS_7BBinderE
_ZTCN7android8BnEffectE4_NS_7IBinderE
_ZTCN7android8BpEffectE0_NS_10IInterfaceE
_ZTCN7android8BpEffectE4_NS_9BpRefBaseE
_ZTTN7android11BnInterfaceINS_12IOMXObserverEEE
_ZTTN7android11BpInterfaceINS_12IOMXObserverEEE
_ZTTN7android12IOMXObserverE
_ZTTN7android13BnOMXObserverE
_ZTTN7android13BpOMXObserverE
_ZTTN7android7IBinder14DeathRecipientE
_ZTVN7android11BnInterfaceINS_12IOMXObserverEEE
_ZTVN7android11BpInterfaceINS_12IOMXObserverEEE
_ZTVN7android12IOMXObserverE
_ZTVN7android12SortedVectorINS_16key_value_pair_tINS_7String8ES2_EEEE
_ZTVN7android13BnOMXObserverE
_ZTVN7android13BpOMXObserverE
_ZTVN7android4ListINS_7String8EEE
_ZTVN7android7IBinder14DeathRecipientE
_ZThn4_N7android13BnOMXObserver10onTransactEjRKNS_6ParcelEPS1_j
_ZTv0_n12_N7android11BnInterfaceINS_12IOMXObserverEED0Ev
_ZTv0_n12_N7android11BnInterfaceINS_12IOMXObserverEED1Ev
_ZTv0_n12_N7android11BpInterfaceINS_12IOMXObserverEED0Ev
_ZTv0_n12_N7android11BpInterfaceINS_12IOMXObserverEED1Ev
_ZTv0_n12_N7android12IOMXObserverD0Ev
_ZTv0_n12_N7android12IOMXObserverD1Ev
_ZTv0_n12_N7android13BnOMXObserverD0Ev
_ZTv0_n12_N7android13BnOMXObserverD1Ev
_ZTv0_n12_N7android13BpOMXObserverD0Ev
_ZTv0_n12_N7android13BpOMXObserverD1Ev
_ZTv0_n12_N7android7IBinder14DeathRecipientD0Ev
_ZTv0_n12_N7android7IBinder14DeathRecipientD1Ev
