_ZN7android10Compare_EQIccEENS_7AStringERKT_RKT0_
_ZN7android10Compare_EQIiiEENS_7AStringERKT_RKT0_
_ZN7android10Compare_EQIjjEENS_7AStringERKT_RKT0_
_ZN7android10Compare_EQIllEENS_7AStringERKT_RKT0_
_ZN7android10Compare_GEIiiEENS_7AStringERKT_RKT0_
_ZN7android10Compare_GEIjjEENS_7AStringERKT_RKT0_
_ZN7android10Compare_GEIliEENS_7AStringERKT_RKT0_
_ZN7android10Compare_GEIxxEENS_7AStringERKT_RKT0_
_ZN7android10Compare_GTIPcPKcEENS_7AStringERKT_RKT0_
_ZN7android10Compare_GTIjjEENS_7AStringERKT_RKT0_
_ZN7android10Compare_LEIiiEENS_7AStringERKT_RKT0_
_ZN7android10Compare_LEIjjEENS_7AStringERKT_RKT0_
_ZN7android10Compare_LTIjjEENS_7AStringERKT_RKT0_
_ZN7android10Compare_NEIiiEENS_7AStringERKT_RKT0_
_ZN7android10Compare_NEIjjEENS_7AStringERKT_RKT0_
_ZN7android10DataSource13CreateFromURIEPKcPKNS_11KeyedVectorINS_7String8ES4_EE
_ZN7android10DataSource15RegisterSnifferEPFbRKNS_2spIS0_EEPNS_7String8EPfPNS1_INS_8AMessageEEEE
_ZN7android10DataSource5sniffEPNS_7String8EPfPNS_2spINS_8AMessageEEE
_ZN7android10SniffMPEG4ERKNS_2spINS_10DataSourceEEEPNS_7String8EPfPNS0_INS_8AMessageEEE
_ZN7android11BnInterfaceINS_12IOMXObserverEE10onAsBinderEv
_ZN7android11MPEG4Writer12writeCStringEPKc
_ZN7android11MPEG4Writer4dumpEiRKNS_6VectorINS_8String16EEE
_ZN7android12CameraSource21dataCallbackTimestampExiRKNS_2spINS_7IMemoryEEE
_ZN7android12CameraSource24releaseOneRecordingFrameERKNS_2spINS_7IMemoryEEE
_ZN7android12SniffMPEG2TSERKNS_2spINS_10DataSourceEEEPNS_7String8EPfPNS0_INS_8AMessageEEE
_ZN7android12compare_typeINS_16key_value_pair_tINS_7AStringES2_EEEEiRKT_S6_
_ZN7android12compare_typeINS_16key_value_pair_tINS_7String8ES2_EEEEiRKT_S6_
_ZN7android13AAMRAssemblerC1ERKNS_2spINS_8AMessageEEEbRKNS_7AStringE
_ZN7android13AAMRAssemblerC2ERKNS_2spINS_8AMessageEEEbRKNS_7AStringE
_ZN7android13AwesomePlayer13setDataSourceEPKcPKNS_11KeyedVectorINS_7String8ES4_EE
_ZN7android13AwesomePlayer15setDataSource_lEPKcPKNS_11KeyedVectorINS_7String8ES4_EE
_ZN7android13MPEG2TSWriter4dumpEiRKNS_6VectorINS_8String16EEE
_ZN7android13SniffMatroskaERKNS_2spINS_10DataSourceEEEPNS_7String8EPfPNS0_INS_8AMessageEEE
_ZN7android15ARTSPConnection11receiveLineEPNS_7AStringE
_ZN7android15ARTSPConnection17addAuthenticationEPNS_7AStringE
_ZN7android15ARTSPConnection8ParseURLEPKcPNS_7AStringEPjS4_S4_S4_
_ZN7android16NuHTTPDataSource15MakeFullHeadersEPKNS_11KeyedVectorINS_7String8ES2_EEPS2_
_ZN7android16NuHTTPDataSource7connectEPKcPKNS_11KeyedVectorINS_7String8ES4_EEl
_ZN7android16NuHTTPDataSource7connectEPKcRKNS_7String8El
_ZN7android16NuHTTPDataSource7connectEPKcjS2_RKNS_7String8El
_ZN7android17move_forward_typeINS_11KeyedVectorINS_7AStringES2_EEEEvPT_PKS4_j
_ZN7android17move_forward_typeINS_16key_value_pair_tINS_7AStringES2_EEEEvPT_PKS4_j
_ZN7android17move_forward_typeINS_16key_value_pair_tINS_7String8ES2_EEEEvPT_PKS4_j
_ZN7android17move_forward_typeINS_16key_value_pair_tIiNS_7String8EEEEEvPT_PKS4_j
_ZN7android17move_forward_typeINS_7AStringEEEvPT_PKS2_j
_ZN7android17move_forward_typeINS_7String8EEEvPT_PKS2_j
_ZN7android18move_backward_typeINS_11KeyedVectorINS_7AStringES2_EEEEvPT_PKS4_j
_ZN7android18move_backward_typeINS_16key_value_pair_tINS_7AStringES2_EEEEvPT_PKS4_j
_ZN7android18move_backward_typeINS_16key_value_pair_tINS_7String8ES2_EEEEvPT_PKS4_j
_ZN7android18move_backward_typeINS_16key_value_pair_tIiNS_7String8EEEEEvPT_PKS4_j
_ZN7android18move_backward_typeINS_7AStringEEEvPT_PKS2_j
_ZN7android18move_backward_typeINS_7String8EEEvPT_PKS2_j
_ZN7android20AMPEG4AudioAssemblerC1ERKNS_2spINS_8AMessageEEERKNS_7AStringE
_ZN7android20AMPEG4AudioAssemblerC2ERKNS_2spINS_8AMessageEEERKNS_7AStringE
_ZN7android20CameraSourceListener17postDataTimestampExiRKNS_2spINS_7IMemoryEEE
_ZN7android20CameraSourceListener8postDataEiRKNS_2spINS_7IMemoryEEE
_ZN7android25AMPEG4ElementaryAssemblerC1ERKNS_2spINS_8AMessageEEERKNS_7AStringES8_
_ZN7android25AMPEG4ElementaryAssemblerC2ERKNS_2spINS_8AMessageEEERKNS_7AStringES8_
_ZN7android2spINS_11IMemoryHeapEEaSERKS2_
_ZN7android2spINS_12MemoryDealerEEaSEPS1_
_ZN7android2spINS_7IMemoryEEaSERKS2_
_ZN7android2spINS_7RefBaseEED1Ev
_ZN7android8MetaData10setCStringEjPKc
_ZN7android8MetaData11findCStringEjPPKc
_ZN7android8OMXCodec15registerBuffersERKNS_2spINS_11IMemoryHeapEEE
_ZN7android8OMXCodec18findMatchingCodecsEPKcbS2_jPNS_6VectorINS_7String8EEE
_ZN7android8SniffAMRERKNS_2spINS_10DataSourceEEEPNS_7String8EPfPNS0_INS_8AMessageEEE
_ZN7android8SniffMP3ERKNS_2spINS_10DataSourceEEEPNS_7String8EPfPNS0_INS_8AMessageEEE
_ZN7android8SniffOggERKNS_2spINS_10DataSourceEEEPNS_7String8EPfPNS0_INS_8AMessageEEE
_ZN7android8SniffWAVERKNS_2spINS_10DataSourceEEEPNS_7String8EPfPNS0_INS_8AMessageEEE
_ZN7android9M3UParser13parseMetaDataERKNS_7AStringEPNS_2spINS_8AMessageEEEPKc
_ZN7android9M3UParser14parseStreamInfERKNS_7AStringEPNS_2spINS_8AMessageEEE
_ZN7android9M3UParser6itemAtEjPNS_7AStringEPNS_2spINS_8AMessageEEE
_ZN7android9OMXClient10disconnectEv
_ZN7android9OMXClient7connectEv
_ZN7android9OMXClientC1Ev
_ZN7android9OMXClientC2Ev
_ZNK7android11MPEG4Writer5Track4dumpEiRKNS_6VectorINS_8String16EEE
_ZNK7android12SortedVectorINS_16key_value_pair_tINS_7AStringES2_EEE10do_compareEPKvS6_
_ZNK7android12SortedVectorINS_16key_value_pair_tINS_7AStringES2_EEE10do_destroyEPvj
_ZNK7android12SortedVectorINS_16key_value_pair_tINS_7AStringES2_EEE12do_constructEPvj
_ZNK7android12SortedVectorINS_16key_value_pair_tINS_7AStringES2_EEE15do_move_forwardEPvPKvj
_ZNK7android12SortedVectorINS_16key_value_pair_tINS_7AStringES2_EEE16do_move_backwardEPvPKvj
_ZNK7android12SortedVectorINS_16key_value_pair_tINS_7AStringES2_EEE7do_copyEPvPKvj
_ZNK7android12SortedVectorINS_16key_value_pair_tINS_7AStringES2_EEE8do_splatEPvPKvj
_ZNK7android12SortedVectorINS_16key_value_pair_tINS_7String8ES2_EEE10do_compareEPKvS6_
_ZNK7android12SortedVectorINS_16key_value_pair_tINS_7String8ES2_EEE10do_destroyEPvj
_ZNK7android12SortedVectorINS_16key_value_pair_tINS_7String8ES2_EEE12do_constructEPvj
_ZNK7android12SortedVectorINS_16key_value_pair_tINS_7String8ES2_EEE15do_move_forwardEPvPKvj
_ZNK7android12SortedVectorINS_16key_value_pair_tINS_7String8ES2_EEE16do_move_backwardEPvPKvj
_ZNK7android12SortedVectorINS_16key_value_pair_tINS_7String8ES2_EEE7do_copyEPvPKvj
_ZNK7android12SortedVectorINS_16key_value_pair_tINS_7String8ES2_EEE8do_splatEPvPKvj
_ZNK7android12SortedVectorINS_16key_value_pair_tIiNS_7String8EEEE10do_compareEPKvS6_
_ZNK7android12SortedVectorINS_16key_value_pair_tIiNS_7String8EEEE10do_destroyEPvj
_ZNK7android12SortedVectorINS_16key_value_pair_tIiNS_7String8EEEE12do_constructEPvj
_ZNK7android12SortedVectorINS_16key_value_pair_tIiNS_7String8EEEE15do_move_forwardEPvPKvj
_ZNK7android12SortedVectorINS_16key_value_pair_tIiNS_7String8EEEE16do_move_backwardEPvPKvj
_ZNK7android12SortedVectorINS_16key_value_pair_tIiNS_7String8EEEE7do_copyEPvPKvj
_ZNK7android12SortedVectorINS_16key_value_pair_tIiNS_7String8EEEE8do_splatEPvPKvj
_ZNK7android19ASessionDescription13findAttributeEjPKcPNS_7AStringE
_ZNK7android19ASessionDescription13getFormatTypeEjPmPNS_7AStringES3_
_ZNK7android19ASessionDescription9getFormatEjPNS_7AStringE
_ZNK7android3ID311getAlbumArtEPjPNS_7String8E
_ZNK7android3ID38Iterator5getIDEPNS_7String8E
_ZNK7android3ID38Iterator9getStringEPNS_7String8E
_ZNK7android6VectorINS_11KeyedVectorINS_7AStringES2_EEE10do_destroyEPvj
_ZNK7android6VectorINS_11KeyedVectorINS_7AStringES2_EEE12do_constructEPvj
_ZNK7android6VectorINS_11KeyedVectorINS_7AStringES2_EEE15do_move_forwardEPvPKvj
_ZNK7android6VectorINS_11KeyedVectorINS_7AStringES2_EEE16do_move_backwardEPvPKvj
_ZNK7android6VectorINS_11KeyedVectorINS_7AStringES2_EEE7do_copyEPvPKvj
_ZNK7android6VectorINS_11KeyedVectorINS_7AStringES2_EEE8do_splatEPvPKvj
_ZNK7android6VectorINS_7AStringEE10do_destroyEPvj
_ZNK7android6VectorINS_7AStringEE12do_constructEPvj
_ZNK7android6VectorINS_7AStringEE15do_move_forwardEPvPKvj
_ZNK7android6VectorINS_7AStringEE16do_move_backwardEPvPKvj
_ZNK7android6VectorINS_7AStringEE7do_copyEPvPKvj
_ZNK7android6VectorINS_7AStringEE8do_splatEPvPKvj
_ZNK7android6VectorINS_7String8EE10do_destroyEPvj
_ZNK7android6VectorINS_7String8EE12do_constructEPvj
_ZNK7android6VectorINS_7String8EE15do_move_forwardEPvPKvj
_ZNK7android6VectorINS_7String8EE16do_move_backwardEPvPKvj
_ZNK7android6VectorINS_7String8EE7do_copyEPvPKvj
_ZNK7android6VectorINS_7String8EE8do_splatEPvPKvj
_ZTCN7android11BnInterfaceINS_12IOMXObserverEEE0_NS_10IInterfaceE
_ZTCN7android11BnInterfaceINS_12IOMXObserverEEE0_S1_
_ZTCN7android11BnInterfaceINS_12IOMXObserverEEE4_NS_7BBinderE
_ZTCN7android11BnInterfaceINS_12IOMXObserverEEE4_NS_7IBinderE
_ZTCN7android16OMXCodecObserverE0_NS_10IInterfaceE
_ZTCN7android16OMXCodecObserverE0_NS_11BnInterfaceINS_12IOMXObserverEEE
_ZTCN7android16OMXCodecObserverE0_NS_12IOMXObserverE
_ZTCN7android16OMXCodecObserverE0_NS_13BnOMXObserverE
_ZTCN7android16OMXCodecObserverE4_NS_7BBinderE
_ZTCN7android16OMXCodecObserverE4_NS_7IBinderE
_ZTTN7android11BnInterfaceINS_12IOMXObserverEEE
_ZTVN7android11BnInterfaceINS_12IOMXObserverEEE
_ZTVN7android12SortedVectorINS_16key_value_pair_tINS_7AStringES2_EEEE
_ZTVN7android12SortedVectorINS_16key_value_pair_tINS_7String8ES2_EEEE
_ZTVN7android12SortedVectorINS_16key_value_pair_tIiNS_7String8EEEEE
_ZTVN7android4ListINS_2spINS_7IMemoryEEEEE
_ZTVN7android4ListINS_7AStringEEE
_ZTVN7android4ListIPFbRKNS_2spINS_10DataSourceEEEPNS_7String8EPfPNS1_INS_8AMessageEEEEEE
_ZTVN7android6VectorINS_11KeyedVectorINS_7AStringES2_EEEE
_ZTVN7android6VectorINS_7AStringEEE
_ZTVN7android6VectorINS_7String8EEE
_ZTv0_n12_N7android11BnInterfaceINS_12IOMXObserverEED0Ev
_ZTv0_n12_N7android11BnInterfaceINS_12IOMXObserverEED1Ev
_ZTv0_n12_N7android13BnOMXObserverD0Ev
_ZTv0_n12_N7android13BnOMXObserverD1Ev
