_ZN7android11StringArray17cmpAscendingAlphaEPKvS2_
_ZN7android11StringArray4sortEPFiPKvS2_E
_ZN7android11StringArray5eraseEi
_ZN7android11StringArray8setEntryEiPKc
_ZN7android11StringArray9push_backEPKc
_ZN7android11StringArrayC1Ev
_ZN7android11StringArrayC2Ev
_ZN7android11StringArrayD0Ev
_ZN7android11StringArrayD1Ev
_ZN7android11StringArrayD2Ev
_ZN7android12AssetManager12addAssetPathERKNS_7String8EPPvb
_ZN7android12AssetManager13scanDirLockedERKNS_7String8E
_ZN7android12AssetManager15attachThemePathERKNS_7String8EPPv
_ZN7android12AssetManager15detachThemePathERKNS_7String8EPv
_ZN7android12AssetManager22openAssetFromZipLockedEPKNS_9ZipFileROEPvNS_5Asset10AccessModeERKNS_7String8E
_ZN7android12AssetManager23openAssetFromFileLockedERKNS_7String8ENS_5Asset10AccessModeE
_ZN7android12AssetManager25createZipSourceNameLockedERKNS_7String8ES3_S3_
_ZN7android12AssetManager6ZipSet19getZipResourceTableERKNS_7String8E
_ZN7android12AssetManager6ZipSet19setZipResourceTableERKNS_7String8EPNS_8ResTableE
_ZN7android12AssetManager6ZipSet24getZipResourceTableAssetERKNS_7String8E
_ZN7android12AssetManager6ZipSet24setZipResourceTableAssetERKNS_7String8EPNS_5AssetE
_ZN7android12AssetManager6ZipSet6getZipERKNS_7String8E
_ZN7android12AssetManager9SharedZip3getERKNS_7String8E
_ZN7android12AssetManager9SharedZipC1ERKNS_7String8El
_ZN7android12AssetManager9SharedZipC2ERKNS_7String8El
_ZN7android12compare_typeINS_16key_value_pair_tINS_7String8ENS_2wpINS_12AssetManager9SharedZipEEEEEEEiRKT_SA_
_ZN7android12compare_typeINS_16key_value_pair_tINS_7String8ENS_7FileRecEEEEEiRKT_S7_
_ZN7android12compare_typeINS_16key_value_pair_tINS_7String8ENS_9FileStateEEEEEiRKT_S7_
_ZN7android13ResStringPool5setToEPKvjb
_ZN7android13ResStringPool6uninitEv
_ZN7android13ResStringPoolC1EPKvjb
_ZN7android13ResStringPoolC1Ev
_ZN7android13ResStringPoolC2EPKvjb
_ZN7android13ResStringPoolC2Ev
_ZN7android13ResStringPoolD1Ev
_ZN7android13ResStringPoolD2Ev
_ZN7android16BackupDataReader16ReadEntityHeaderEPNS_7String8EPj
_ZN7android16BackupDataWriter12SetKeyPrefixERKNS_7String8E
_ZN7android16BackupDataWriter17WriteEntityHeaderERKNS_7String8Ej
_ZN7android17RestoreHelperBase9WriteFileERKNS_7String8EPNS_16BackupDataReaderE
_ZN7android17move_forward_typeINS_16key_value_pair_tINS_7String8ENS_2wpINS_12AssetManager9SharedZipEEEEEEEvPT_PKS8_j
_ZN7android17move_forward_typeINS_16key_value_pair_tINS_7String8ENS_7FileRecEEEEEvPT_PKS5_j
_ZN7android17move_forward_typeINS_16key_value_pair_tINS_7String8ENS_9FileStateEEEEEvPT_PKS5_j
_ZN7android17move_forward_typeINS_7String8EEEvPT_PKS2_j
_ZN7android18move_backward_typeINS_16key_value_pair_tINS_7String8ENS_2wpINS_12AssetManager9SharedZipEEEEEEEvPT_PKS8_j
_ZN7android18move_backward_typeINS_16key_value_pair_tINS_7String8ENS_7FileRecEEEEEvPT_PKS5_j
_ZN7android18move_backward_typeINS_16key_value_pair_tINS_7String8ENS_9FileStateEEEEEvPT_PKS5_j
_ZN7android18move_backward_typeINS_7String8EEEvPT_PKS2_j
_ZN7android7RefBase10onFirstRefEv
_ZN7android7RefBase12weakref_type14attemptIncWeakEPKv
_ZN7android7RefBase12weakref_type16attemptIncStrongEPKv
_ZN7android7RefBase12weakref_type7decWeakEPKv
_ZN7android7RefBase12weakref_type7incWeakEPKv
_ZN7android7RefBase12weakref_type7trackMeEbb
_ZN7android7RefBase13onLastWeakRefEPKv
_ZN7android7RefBase15onLastStrongRefEPKv
_ZN7android7RefBase20extendObjectLifetimeEi
_ZN7android7RefBase20onIncStrongAttemptedEjPKv
_ZN7android7RefBaseC1Ev
_ZN7android7RefBaseC2Ev
_ZN7android7RefBaseD0Ev
_ZN7android7RefBaseD1Ev
_ZN7android7RefBaseD2Ev
_ZN7android7String810appendPathEPKc
_ZN7android7String810lockBufferEj
_ZN7android7String811real_appendEPKcj
_ZN7android7String811setPathNameEPKc
_ZN7android7String811setPathNameEPKcj
_ZN7android7String812appendFormatEPKcz
_ZN7android7String812unlockBufferEj
_ZN7android7String812unlockBufferEv
_ZN7android7String816convertToResPathEv
_ZN7android7String85setToEPKc
_ZN7android7String85setToEPKcj
_ZN7android7String85setToEPKjj
_ZN7android7String85setToEPKtj
_ZN7android7String85setToERKS0_
_ZN7android7String86appendEPKc
_ZN7android7String86appendEPKcj
_ZN7android7String86appendERKS0_
_ZN7android7String87toLowerEjj
_ZN7android7String87toLowerEv
_ZN7android7String87toUpperEjj
_ZN7android7String87toUpperEv
_ZN7android7String8C1EPKc
_ZN7android7String8C1EPKcj
_ZN7android7String8C1EPKj
_ZN7android7String8C1EPKjj
_ZN7android7String8C1EPKt
_ZN7android7String8C1EPKtj
_ZN7android7String8C1ERKNS_8String16E
_ZN7android7String8C1ERKS0_
_ZN7android7String8C1Ev
_ZN7android7String8C2EPKc
_ZN7android7String8C2EPKcj
_ZN7android7String8C2EPKj
_ZN7android7String8C2EPKjj
_ZN7android7String8C2EPKt
_ZN7android7String8C2EPKtj
_ZN7android7String8C2ERKNS_8String16E
_ZN7android7String8C2ERKS0_
_ZN7android7String8C2Ev
_ZN7android7String8D1Ev
_ZN7android7String8D2Ev
_ZN7android8AssetDir8FileInfo9findEntryEPKNS_12SortedVectorIS1_EERKNS_7String8E
_ZN7android8ResTable13collectStringEPNS_8String16EPKtjbPPKcb
_ZN7android8ResTable13valueToStringEPKNS_9Res_valueEjPtPj
_ZN7android8ResTable17expandResourceRefEPKtjPNS_8String16ES4_S4_PKS3_S6_PPKc
_ZN7android8ResTable20removeAssetsByCookieERKNS_7String8EPv
_ZN7android8String1610replaceAllEtt
_ZN7android8String165setToEPKt
_ZN7android8String165setToEPKtj
_ZN7android8String165setToERKS0_
_ZN7android8String165setToERKS0_jj
_ZN7android8String166appendEPKtj
_ZN7android8String166appendERKS0_
_ZN7android8String166insertEjPKt
_ZN7android8String166insertEjPKtj
_ZN7android8String166removeEjj
_ZN7android8String169makeLowerEv
_ZN7android8String16C1EPKc
_ZN7android8String16C1EPKcj
_ZN7android8String16C1EPKt
_ZN7android8String16C1EPKtj
_ZN7android8String16C1ERKNS_7String8E
_ZN7android8String16C1ERKS0_
_ZN7android8String16C1ERKS0_jj
_ZN7android8String16C1Ev
_ZN7android8String16C2EPKc
_ZN7android8String16C2EPKcj
_ZN7android8String16C2EPKt
_ZN7android8String16C2EPKtj
_ZN7android8String16C2ERKNS_7String8E
_ZN7android8String16C2ERKS0_
_ZN7android8String16C2ERKS0_jj
_ZN7android8String16C2Ev
_ZN7android8String16D1Ev
_ZN7android8String16D2Ev
_ZN7androidlsERNS_10TextOutputERKNS_7String8E
_ZN7androidlsERNS_10TextOutputERKNS_8String16E
_ZNK7android12AssetManager10getLocalesEPNS_6VectorINS_7String8EEE
_ZNK7android12AssetManager6ZipSet8getIndexERKNS_7String8E
_ZNK7android12ResXMLParser10getStringsEv
_ZNK7android12ResXMLParser23getAttributeStringValueEjPj
_ZNK7android12ResXMLParser25getAttributeValueStringIDEj
_ZNK7android12SortedVectorINS_16key_value_pair_tINS_7String8ENS_2wpINS_12AssetManager9SharedZipEEEEEE10do_compareEPKvSA_
_ZNK7android12SortedVectorINS_16key_value_pair_tINS_7String8ENS_2wpINS_12AssetManager9SharedZipEEEEEE10do_destroyEPvj
_ZNK7android12SortedVectorINS_16key_value_pair_tINS_7String8ENS_2wpINS_12AssetManager9SharedZipEEEEEE12do_constructEPvj
_ZNK7android12SortedVectorINS_16key_value_pair_tINS_7String8ENS_2wpINS_12AssetManager9SharedZipEEEEEE15do_move_forwardEPvPKvj
_ZNK7android12SortedVectorINS_16key_value_pair_tINS_7String8ENS_2wpINS_12AssetManager9SharedZipEEEEEE16do_move_backwardEPvPKvj
_ZNK7android12SortedVectorINS_16key_value_pair_tINS_7String8ENS_2wpINS_12AssetManager9SharedZipEEEEEE7do_copyEPvPKvj
_ZNK7android12SortedVectorINS_16key_value_pair_tINS_7String8ENS_2wpINS_12AssetManager9SharedZipEEEEEE8do_splatEPvPKvj
_ZNK7android12SortedVectorINS_16key_value_pair_tINS_7String8ENS_7FileRecEEEE10do_compareEPKvS7_
_ZNK7android12SortedVectorINS_16key_value_pair_tINS_7String8ENS_7FileRecEEEE10do_destroyEPvj
_ZNK7android12SortedVectorINS_16key_value_pair_tINS_7String8ENS_7FileRecEEEE12do_constructEPvj
_ZNK7android12SortedVectorINS_16key_value_pair_tINS_7String8ENS_7FileRecEEEE15do_move_forwardEPvPKvj
_ZNK7android12SortedVectorINS_16key_value_pair_tINS_7String8ENS_7FileRecEEEE16do_move_backwardEPvPKvj
_ZNK7android12SortedVectorINS_16key_value_pair_tINS_7String8ENS_7FileRecEEEE7do_copyEPvPKvj
_ZNK7android12SortedVectorINS_16key_value_pair_tINS_7String8ENS_7FileRecEEEE8do_splatEPvPKvj
_ZNK7android12SortedVectorINS_16key_value_pair_tINS_7String8ENS_9FileStateEEEE10do_compareEPKvS7_
_ZNK7android12SortedVectorINS_16key_value_pair_tINS_7String8ENS_9FileStateEEEE10do_destroyEPvj
_ZNK7android12SortedVectorINS_16key_value_pair_tINS_7String8ENS_9FileStateEEEE12do_constructEPvj
_ZNK7android12SortedVectorINS_16key_value_pair_tINS_7String8ENS_9FileStateEEEE15do_move_forwardEPvPKvj
_ZNK7android12SortedVectorINS_16key_value_pair_tINS_7String8ENS_9FileStateEEEE16do_move_backwardEPvPKvj
_ZNK7android12SortedVectorINS_16key_value_pair_tINS_7String8ENS_9FileStateEEEE7do_copyEPvPKvj
_ZNK7android12SortedVectorINS_16key_value_pair_tINS_7String8ENS_9FileStateEEEE8do_splatEPvPKvj
_ZNK7android13ResStringPool13indexOfStringEPKtj
_ZNK7android13ResStringPool4sizeEv
_ZNK7android13ResStringPool7styleAtERKNS_17ResStringPool_refE
_ZNK7android13ResStringPool7styleAtEj
_ZNK7android13ResStringPool8getErrorEv
_ZNK7android13ResStringPool8stringAtEjPj
_ZNK7android13ResStringPool9string8AtEjPj
_ZNK7android6VectorINS_7String8EE10do_destroyEPvj
_ZNK7android6VectorINS_7String8EE12do_constructEPvj
_ZNK7android6VectorINS_7String8EE15do_move_forwardEPvPKvj
_ZNK7android6VectorINS_7String8EE16do_move_backwardEPvPKvj
_ZNK7android6VectorINS_7String8EE7do_copyEPvPKvj
_ZNK7android6VectorINS_7String8EE8do_splatEPvPKvj
_ZNK7android7RefBase10createWeakEPKv
_ZNK7android7RefBase11getWeakRefsEv
_ZNK7android7RefBase12weakref_type12getWeakCountEv
_ZNK7android7RefBase12weakref_type7refBaseEv
_ZNK7android7RefBase12weakref_type9printRefsEv
_ZNK7android7RefBase14forceIncStrongEPKv
_ZNK7android7RefBase14getStrongCountEv
_ZNK7android7RefBase9decStrongEPKv
_ZNK7android7RefBase9incStrongEPKv
_ZNK7android7String810getPathDirEv
_ZNK7android7String810getUtf32AtEjPj
_ZNK7android7String811getBasePathEv
_ZNK7android7String811getPathLeafEv
_ZNK7android7String814find_extensionEv
_ZNK7android7String814getUtf32LengthEv
_ZNK7android7String816getPathExtensionEv
_ZNK7android7String84findEPKcj
_ZNK7android7String88getUtf32EPjj
_ZNK7android7String88walkPathEPS0_
_ZNK7android8ResTable10getLocalesEPNS_6VectorINS_7String8EEE
_ZNK7android8ResTable13stringToValueEPNS_9Res_valueEPNS_8String16EPKtjbbjPKS3_S8_PNS0_8AccessorEPvjb
_ZNK7android8ResTable19getTableStringBlockEj
_ZNK7android8String1610startsWithEPKt
_ZNK7android8String1610startsWithERKS0_
_ZNK7android8String168findLastEt
_ZNK7android8String169findFirstEt
_ZNK7android9CallStack19toStringSingleLevelEPKci
_ZNK7android9CallStack8toStringEPKc
_ZTVN7android11StringArrayE
_ZTVN7android12SortedVectorINS_16key_value_pair_tINS_7String8ENS_2wpINS_12AssetManager9SharedZipEEEEEEE
_ZTVN7android12SortedVectorINS_16key_value_pair_tINS_7String8ENS_7FileRecEEEEE
_ZTVN7android12SortedVectorINS_16key_value_pair_tINS_7String8ENS_9FileStateEEEEE
_ZTVN7android6VectorINS_7String8EEE
_ZTVN7android7RefBaseE
strcmp16
strcpy16
stringForIndent
strlen16
strlen32
strncmp16
strncpy16
strnlen16
strnlen32
strzcmp16
strzcmp16_h_n
